; ModuleID = '42/1745.cpp'
source_filename = "42/1745.cpp"
target datalayout = "e-m:e-p270:32:32-p271:32:32-p272:64:64-i64:64-f80:128-n8:16:32:64-S128"
target triple = "x86_64-pc-linux-gnu"

%"class.std::ios_base::Init" = type { i8 }
%"class.std::basic_istream" = type { i32 (...)**, i64, %"class.std::basic_ios" }
%"class.std::basic_ios" = type { %"class.std::ios_base", %"class.std::basic_ostream"*, i8, i8, %"class.std::basic_streambuf"*, %"class.std::ctype"*, %"class.std::num_put"*, %"class.std::num_get"* }
%"class.std::ios_base" = type { i32 (...)**, i64, i64, i32, i32, i32, %"struct.std::ios_base::_Callback_list"*, %"struct.std::ios_base::_Words", [8 x %"struct.std::ios_base::_Words"], i32, %"struct.std::ios_base::_Words"*, %"class.std::locale" }
%"struct.std::ios_base::_Callback_list" = type { %"struct.std::ios_base::_Callback_list"*, void (i32, %"class.std::ios_base"*, i32)*, i32, i32 }
%"struct.std::ios_base::_Words" = type { i8*, i64 }
%"class.std::locale" = type { %"class.std::locale::_Impl"* }
%"class.std::locale::_Impl" = type { i32, %"class.std::locale::facet"**, i64, %"class.std::locale::facet"**, i8** }
%"class.std::locale::facet" = type <{ i32 (...)**, i32, [4 x i8] }>
%"class.std::basic_ostream" = type { i32 (...)**, %"class.std::basic_ios" }
%"class.std::basic_streambuf" = type { i32 (...)**, i8*, i8*, i8*, i8*, i8*, i8*, %"class.std::locale" }
%"class.std::ctype" = type <{ %"class.std::locale::facet.base", [4 x i8], %struct.__locale_struct*, i8, [7 x i8], i32*, i32*, i16*, i8, [256 x i8], [256 x i8], i8, [6 x i8] }>
%"class.std::locale::facet.base" = type <{ i32 (...)**, i32 }>
%struct.__locale_struct = type { [13 x %struct.__locale_data*], i16*, i32*, i32*, [13 x i8*] }
%struct.__locale_data = type opaque
%"class.std::num_put" = type { %"class.std::locale::facet.base", [4 x i8] }
%"class.std::num_get" = type { %"class.std::locale::facet.base", [4 x i8] }

@_ZStL8__ioinit = internal global %"class.std::ios_base::Init" zeroinitializer, align 1
@__dso_handle = external hidden global i8
@_ZSt3cin = external dso_local global %"class.std::basic_istream", align 8
@_ZSt4cout = external dso_local global %"class.std::basic_ostream", align 8
@.str = private unnamed_addr constant [2 x i8] c" \00", align 1
@llvm.global_ctors = appending global [1 x { i32, void ()*, i8* }] [{ i32, void ()*, i8* } { i32 65535, void ()* @_GLOBAL__sub_I_1745.cpp, i8* null }]

; Function Attrs: noinline uwtable
define internal void @__cxx_global_var_init() #0 section ".text.startup" {
  call void @_ZNSt8ios_base4InitC1Ev(%"class.std::ios_base::Init"* @_ZStL8__ioinit)
  %1 = call i32 @__cxa_atexit(void (i8*)* bitcast (void (%"class.std::ios_base::Init"*)* @_ZNSt8ios_base4InitD1Ev to void (i8*)*), i8* getelementptr inbounds (%"class.std::ios_base::Init", %"class.std::ios_base::Init"* @_ZStL8__ioinit, i32 0, i32 0), i8* @__dso_handle) #3
  ret void
}

declare dso_local void @_ZNSt8ios_base4InitC1Ev(%"class.std::ios_base::Init"*) unnamed_addr #1

; Function Attrs: nounwind
declare dso_local void @_ZNSt8ios_base4InitD1Ev(%"class.std::ios_base::Init"*) unnamed_addr #2

; Function Attrs: nounwind
declare dso_local i32 @__cxa_atexit(void (i8*)*, i8*, i8*) #3

; Function Attrs: noinline norecurse uwtable
define dso_local i32 @main() #4 {
  %1 = alloca i32, align 4
  %2 = alloca i32, align 4
  %3 = alloca i32, align 4
  %4 = alloca i8*, align 8
  %5 = alloca i64, align 8
  %6 = alloca i32, align 4
  %7 = alloca i32, align 4
  %8 = alloca i32, align 4
  %9 = alloca i32, align 4
  %10 = alloca i32, align 4
  %11 = alloca i32, align 4
  store i32 0, i32* %1, align 4
  %12 = call dereferenceable(280) %"class.std::basic_istream"* @_ZNSirsERi(%"class.std::basic_istream"* @_ZSt3cin, i32* dereferenceable(4) %2)
  %13 = load i32, i32* %2, align 4
  store i32 %13, i32* %3, align 4
  %14 = load i32, i32* %3, align 4
  %15 = zext i32 %14 to i64
  %16 = call i8* @llvm.stacksave()
  store i8* %16, i8** %4, align 8
  %17 = alloca i32, i64 %15, align 16
  store i64 %15, i64* %5, align 8
  store i32 0, i32* %6, align 4
  br label %18

18:                                               ; preds = %28, %0
  %19 = load i32, i32* %6, align 4
  %20 = load i32, i32* %3, align 4
  %21 = sub nsw i32 %20, 1
  %22 = icmp sle i32 %19, %21
  br i1 %22, label %23, label %31

23:                                               ; preds = %18
  %24 = load i32, i32* %6, align 4
  %25 = sext i32 %24 to i64
  %26 = getelementptr inbounds i32, i32* %17, i64 %25
  %27 = call dereferenceable(280) %"class.std::basic_istream"* @_ZNSirsERi(%"class.std::basic_istream"* @_ZSt3cin, i32* dereferenceable(4) %26)
  br label %28

28:                                               ; preds = %23
  %29 = load i32, i32* %6, align 4
  %30 = add nsw i32 %29, 1
  store i32 %30, i32* %6, align 4
  br label %18

31:                                               ; preds = %18
  %32 = call dereferenceable(280) %"class.std::basic_istream"* @_ZNSirsERi(%"class.std::basic_istream"* @_ZSt3cin, i32* dereferenceable(4) %7)
  store i32 0, i32* %8, align 4
  store i32 0, i32* %9, align 4
  br label %33

33:                                               ; preds = %72, %31
  %34 = load i32, i32* %9, align 4
  %35 = load i32, i32* %3, align 4
  %36 = sub nsw i32 %35, 1
  %37 = load i32, i32* %8, align 4
  %38 = sub nsw i32 %36, %37
  %39 = icmp sle i32 %34, %38
  br i1 %39, label %40, label %75

40:                                               ; preds = %33
  %41 = load i32, i32* %9, align 4
  %42 = sext i32 %41 to i64
  %43 = getelementptr inbounds i32, i32* %17, i64 %42
  %44 = load i32, i32* %43, align 4
  %45 = load i32, i32* %7, align 4
  %46 = icmp eq i32 %44, %45
  br i1 %46, label %47, label %71

47:                                               ; preds = %40
  %48 = load i32, i32* %9, align 4
  store i32 %48, i32* %10, align 4
  br label %49

49:                                               ; preds = %63, %47
  %50 = load i32, i32* %10, align 4
  %51 = load i32, i32* %3, align 4
  %52 = sub nsw i32 %51, 2
  %53 = icmp sle i32 %50, %52
  br i1 %53, label %54, label %66

54:                                               ; preds = %49
  %55 = load i32, i32* %10, align 4
  %56 = add nsw i32 %55, 1
  %57 = sext i32 %56 to i64
  %58 = getelementptr inbounds i32, i32* %17, i64 %57
  %59 = load i32, i32* %58, align 4
  %60 = load i32, i32* %10, align 4
  %61 = sext i32 %60 to i64
  %62 = getelementptr inbounds i32, i32* %17, i64 %61
  store i32 %59, i32* %62, align 4
  br label %63

63:                                               ; preds = %54
  %64 = load i32, i32* %10, align 4
  %65 = add nsw i32 %64, 1
  store i32 %65, i32* %10, align 4
  br label %49

66:                                               ; preds = %49
  %67 = load i32, i32* %9, align 4
  %68 = add nsw i32 %67, -1
  store i32 %68, i32* %9, align 4
  %69 = load i32, i32* %8, align 4
  %70 = add nsw i32 %69, 1
  store i32 %70, i32* %8, align 4
  br label %71

71:                                               ; preds = %66, %40
  br label %72

72:                                               ; preds = %71
  %73 = load i32, i32* %9, align 4
  %74 = add nsw i32 %73, 1
  store i32 %74, i32* %9, align 4
  br label %33

75:                                               ; preds = %33
  store i32 0, i32* %11, align 4
  br label %76

76:                                               ; preds = %100, %75
  %77 = load i32, i32* %11, align 4
  %78 = load i32, i32* %3, align 4
  %79 = sub nsw i32 %78, 1
  %80 = load i32, i32* %8, align 4
  %81 = sub nsw i32 %79, %80
  %82 = icmp sle i32 %77, %81
  br i1 %82, label %83, label %103

83:                                               ; preds = %76
  %84 = load i32, i32* %11, align 4
  %85 = icmp eq i32 %84, 0
  br i1 %85, label %86, label %92

86:                                               ; preds = %83
  %87 = load i32, i32* %11, align 4
  %88 = sext i32 %87 to i64
  %89 = getelementptr inbounds i32, i32* %17, i64 %88
  %90 = load i32, i32* %89, align 4
  %91 = call dereferenceable(272) %"class.std::basic_ostream"* @_ZNSolsEi(%"class.std::basic_ostream"* @_ZSt4cout, i32 %90)
  br label %99

92:                                               ; preds = %83
  %93 = call dereferenceable(272) %"class.std::basic_ostream"* @_ZStlsISt11char_traitsIcEERSt13basic_ostreamIcT_ES5_PKc(%"class.std::basic_ostream"* dereferenceable(272) @_ZSt4cout, i8* getelementptr inbounds ([2 x i8], [2 x i8]* @.str, i64 0, i64 0))
  %94 = load i32, i32* %11, align 4
  %95 = sext i32 %94 to i64
  %96 = getelementptr inbounds i32, i32* %17, i64 %95
  %97 = load i32, i32* %96, align 4
  %98 = call dereferenceable(272) %"class.std::basic_ostream"* @_ZNSolsEi(%"class.std::basic_ostream"* %93, i32 %97)
  br label %99

99:                                               ; preds = %92, %86
  br label %100

100:                                              ; preds = %99
  %101 = load i32, i32* %11, align 4
  %102 = add nsw i32 %101, 1
  store i32 %102, i32* %11, align 4
  br label %76

103:                                              ; preds = %76
  store i32 0, i32* %1, align 4
  %104 = load i8*, i8** %4, align 8
  call void @llvm.stackrestore(i8* %104)
  %105 = load i32, i32* %1, align 4
  ret i32 %105
}

declare dso_local dereferenceable(280) %"class.std::basic_istream"* @_ZNSirsERi(%"class.std::basic_istream"*, i32* dereferenceable(4)) #1

; Function Attrs: nounwind
declare i8* @llvm.stacksave() #3

declare dso_local dereferenceable(272) %"class.std::basic_ostream"* @_ZNSolsEi(%"class.std::basic_ostream"*, i32) #1

declare dso_local dereferenceable(272) %"class.std::basic_ostream"* @_ZStlsISt11char_traitsIcEERSt13basic_ostreamIcT_ES5_PKc(%"class.std::basic_ostream"* dereferenceable(272), i8*) #1

; Function Attrs: nounwind
declare void @llvm.stackrestore(i8*) #3

; Function Attrs: noinline uwtable
define internal void @_GLOBAL__sub_I_1745.cpp() #0 section ".text.startup" {
  call void @__cxx_global_var_init()
  ret void
}


!llvm.module.flags = !{!0}
!llvm.ident = !{!1}

!0 = !{i32 1, !"wchar_size", i32 4}
!1 = !{!"clang version 10.0.0-4ubuntu1 "}
